; Function Attrs: mustprogress nofree norecurse nosync nounwind willreturn memory(readwrite, inaccessiblemem: none) uwtable
define internal noundef ptr @_curses_panel_panel_window(ptr noundef readonly captures(none) %0, ptr readnone captures(none) %1) #3 {
  %3 = getelementptr i8, ptr %0, i64 24
  %.val = load ptr, ptr %3, align 8, !tbaa !40
  %4 = load i32, ptr %.val, align 8, !tbaa !14
  %5 = icmp slt i32 %4, 0
  br i1 %5, label %_curses_panel_panel_window_impl.exit, label %6

6:                                                ; preds = %2
  %7 = add nuw i32 %4, 1
  store i32 %7, ptr %.val, align 8, !tbaa !14
  br label %_curses_panel_panel_window_impl.exit

_curses_panel_panel_window_impl.exit:             ; preds = %2, %6
  ret ptr %.val
}